target datalayout = "e-m:e-p270:32:32-p271:32:32-p272:64:64-i64:64-i128:128-f80:128-n8:16:32:64-S128"
target triple = "x86_64-pc-linux-gnu"

%"class.glslang::TBuiltInParseables" = type { ptr, %"class.std::__cxx11::basic_string", [14 x %"class.std::__cxx11::basic_string"] }
%"class.std::__cxx11::basic_string" = type { %"struct.std::__cxx11::basic_string<char, std::char_traits<char>, glslang::pool_allocator<char>>::_Alloc_hider", i64, %union.anon }
%"struct.std::__cxx11::basic_string<char, std::char_traits<char>, glslang::pool_allocator<char>>::_Alloc_hider" = type { %"class.glslang::pool_allocator", ptr }
%"class.glslang::pool_allocator" = type { ptr }
%union.anon = type { i64, [8 x i8] }

; Function Attrs: mustprogress nounwind uwtable
define linkonce_odr void @_ZN7glslang14pool_allocatorIcE10deallocateEPcm(ptr noundef nonnull align 8 dereferenceable(8) %0, ptr noundef %1, i64 noundef %2) #2 comdat align 2 {
  %4 = alloca ptr, align 8
  %5 = alloca ptr, align 8
  %6 = alloca i64, align 8
  store ptr %0, ptr %4, align 8
  store ptr %1, ptr %5, align 8
  store i64 %2, ptr %6, align 8
  ret void
}

; Function Attrs: mustprogress nounwind uwtable
define linkonce_odr noundef ptr @_ZNSt19__ptr_traits_ptr_toIPKcS0_Lb0EE10pointer_toERS0_(ptr noundef nonnull align 1 dereferenceable(1) %0) #2 comdat align 2 {
  %2 = alloca ptr, align 8
  store ptr %0, ptr %2, align 8
  %3 = load ptr, ptr %2, align 8
  ret ptr %3
}

; Function Attrs: mustprogress nounwind uwtable
define linkonce_odr void @_ZNSt16allocator_traitsIN7glslang14pool_allocatorIcEEE10deallocateERS2_Pcm(ptr noundef nonnull align 8 dereferenceable(8) %0, ptr noundef %1, i64 noundef %2) #2 comdat align 2 {
  %4 = alloca ptr, align 8
  %5 = alloca ptr, align 8
  %6 = alloca i64, align 8
  store ptr %0, ptr %4, align 8
  store ptr %1, ptr %5, align 8
  store i64 %2, ptr %6, align 8
  %7 = load ptr, ptr %4, align 8
  %8 = load ptr, ptr %5, align 8
  %9 = load i64, ptr %6, align 8
  call void @_ZN7glslang14pool_allocatorIcE10deallocateEPcm(ptr noundef nonnull align 8 dereferenceable(8) %7, ptr noundef %8, i64 noundef %9)
  ret void
}

; Function Attrs: mustprogress nounwind uwtable
define linkonce_odr noundef nonnull align 8 dereferenceable(8) ptr @_ZNSt7__cxx1112basic_stringIcSt11char_traitsIcEN7glslang14pool_allocatorIcEEE16_M_get_allocatorEv(ptr noundef nonnull align 8 dereferenceable(40) %0) #2 comdat align 2 {
  %2 = alloca ptr, align 8
  store ptr %0, ptr %2, align 8
  %3 = load ptr, ptr %2, align 8
  %4 = getelementptr inbounds %"class.std::__cxx11::basic_string", ptr %3, i32 0, i32 0
  ret ptr %4
}

; Function Attrs: mustprogress nounwind uwtable
define linkonce_odr noundef ptr @_ZNKSt7__cxx1112basic_stringIcSt11char_traitsIcEN7glslang14pool_allocatorIcEEE13_M_local_dataEv(ptr noundef nonnull align 8 dereferenceable(40) %0) #2 comdat align 2 {
  %2 = alloca ptr, align 8
  store ptr %0, ptr %2, align 8
  %3 = load ptr, ptr %2, align 8
  %4 = getelementptr inbounds %"class.std::__cxx11::basic_string", ptr %3, i32 0, i32 2
  %5 = getelementptr inbounds [16 x i8], ptr %4, i64 0, i64 0
  %6 = call noundef ptr @_ZNSt19__ptr_traits_ptr_toIPKcS0_Lb0EE10pointer_toERS0_(ptr noundef nonnull align 1 dereferenceable(1) %5) #10
  ret ptr %6
}

; Function Attrs: mustprogress nounwind uwtable
define linkonce_odr noundef ptr @_ZNKSt7__cxx1112basic_stringIcSt11char_traitsIcEN7glslang14pool_allocatorIcEEE7_M_dataEv(ptr noundef nonnull align 8 dereferenceable(40) %0) #2 comdat align 2 {
  %2 = alloca ptr, align 8
  store ptr %0, ptr %2, align 8
  %3 = load ptr, ptr %2, align 8
  %4 = getelementptr inbounds %"class.std::__cxx11::basic_string", ptr %3, i32 0, i32 0
  %5 = getelementptr inbounds %"struct.std::__cxx11::basic_string<char, std::char_traits<char>, glslang::pool_allocator<char>>::_Alloc_hider", ptr %4, i32 0, i32 1
  %6 = load ptr, ptr %5, align 8
  ret ptr %6
}

; Function Attrs: mustprogress nounwind uwtable
define linkonce_odr void @_ZNSt7__cxx1112basic_stringIcSt11char_traitsIcEN7glslang14pool_allocatorIcEEE10_M_destroyEm(ptr noundef nonnull align 8 dereferenceable(40) %0, i64 noundef %1) #2 comdat align 2 {
  %3 = alloca ptr, align 8
  %4 = alloca i64, align 8
  store ptr %0, ptr %3, align 8
  store i64 %1, ptr %4, align 8
  %5 = load ptr, ptr %3, align 8
  %6 = call noundef nonnull align 8 dereferenceable(8) ptr @_ZNSt7__cxx1112basic_stringIcSt11char_traitsIcEN7glslang14pool_allocatorIcEEE16_M_get_allocatorEv(ptr noundef nonnull align 8 dereferenceable(40) %5)
  %7 = call noundef ptr @_ZNKSt7__cxx1112basic_stringIcSt11char_traitsIcEN7glslang14pool_allocatorIcEEE7_M_dataEv(ptr noundef nonnull align 8 dereferenceable(40) %5)
  %8 = load i64, ptr %4, align 8
  %9 = add i64 %8, 1
  call void @_ZNSt16allocator_traitsIN7glslang14pool_allocatorIcEEE10deallocateERS2_Pcm(ptr noundef nonnull align 8 dereferenceable(8) %6, ptr noundef %7, i64 noundef %9)
  ret void
}

; Function Attrs: mustprogress nounwind uwtable
define linkonce_odr noundef zeroext i1 @_ZNKSt7__cxx1112basic_stringIcSt11char_traitsIcEN7glslang14pool_allocatorIcEEE11_M_is_localEv(ptr noundef nonnull align 8 dereferenceable(40) %0) #2 comdat align 2 {
  %2 = alloca i1, align 1
  %3 = alloca ptr, align 8
  store ptr %0, ptr %3, align 8
  %4 = load ptr, ptr %3, align 8
  %5 = call noundef ptr @_ZNKSt7__cxx1112basic_stringIcSt11char_traitsIcEN7glslang14pool_allocatorIcEEE7_M_dataEv(ptr noundef nonnull align 8 dereferenceable(40) %4)
  %6 = call noundef ptr @_ZNKSt7__cxx1112basic_stringIcSt11char_traitsIcEN7glslang14pool_allocatorIcEEE13_M_local_dataEv(ptr noundef nonnull align 8 dereferenceable(40) %4)
  %7 = icmp eq ptr %5, %6
  br i1 %7, label %8, label %14

8:                                                ; preds = %1
  %9 = getelementptr inbounds %"class.std::__cxx11::basic_string", ptr %4, i32 0, i32 1
  %10 = load i64, ptr %9, align 8
  %11 = icmp ugt i64 %10, 15
  br i1 %11, label %12, label %13

12:                                               ; preds = %8
  unreachable

13:                                               ; preds = %8
  store i1 true, ptr %2, align 1
  br label %15

14:                                               ; preds = %1
  store i1 false, ptr %2, align 1
  br label %15

15:                                               ; preds = %14, %13
  %16 = load i1, ptr %2, align 1
  ret i1 %16
}

; Function Attrs: mustprogress nounwind uwtable
define linkonce_odr void @_ZNSt7__cxx1112basic_stringIcSt11char_traitsIcEN7glslang14pool_allocatorIcEEE10_M_disposeEv(ptr noundef nonnull align 8 dereferenceable(40) %0) #2 comdat align 2 {
  %2 = alloca ptr, align 8
  store ptr %0, ptr %2, align 8
  %3 = load ptr, ptr %2, align 8
  %4 = call noundef zeroext i1 @_ZNKSt7__cxx1112basic_stringIcSt11char_traitsIcEN7glslang14pool_allocatorIcEEE11_M_is_localEv(ptr noundef nonnull align 8 dereferenceable(40) %3)
  br i1 %4, label %8, label %5

5:                                                ; preds = %1
  %6 = getelementptr inbounds %"class.std::__cxx11::basic_string", ptr %3, i32 0, i32 2
  %7 = load i64, ptr %6, align 8
  call void @_ZNSt7__cxx1112basic_stringIcSt11char_traitsIcEN7glslang14pool_allocatorIcEEE10_M_destroyEm(ptr noundef nonnull align 8 dereferenceable(40) %3, i64 noundef %7) #10
  br label %8

8:                                                ; preds = %5, %1
  ret void
}

; Function Attrs: mustprogress nounwind uwtable
define linkonce_odr void @_ZNSt7__cxx1112basic_stringIcSt11char_traitsIcEN7glslang14pool_allocatorIcEEED2Ev(ptr noundef nonnull align 8 dereferenceable(40) %0) unnamed_addr #2 comdat align 2 {
  %2 = alloca ptr, align 8
  store ptr %0, ptr %2, align 8
  %3 = load ptr, ptr %2, align 8
  call void @_ZNSt7__cxx1112basic_stringIcSt11char_traitsIcEN7glslang14pool_allocatorIcEEE10_M_disposeEv(ptr noundef nonnull align 8 dereferenceable(40) %3)
  ret void
}

; Function Attrs: mustprogress nounwind uwtable
define void @_ZN7glslang18TBuiltInParseablesD2Ev(ptr noundef nonnull align 8 dereferenceable(608) %0) unnamed_addr #2 align 2 {
  %2 = alloca ptr, align 8
  store ptr %0, ptr %2, align 8
  %3 = load ptr, ptr %2, align 8
  store ptr getelementptr inbounds inrange(-16, 64) ({ [10 x ptr] }, ptr @_ZTVN7glslang18TBuiltInParseablesE, i32 0, i32 0, i32 2), ptr %3, align 8
  %4 = getelementptr inbounds %"class.glslang::TBuiltInParseables", ptr %3, i32 0, i32 2
  %5 = getelementptr inbounds [14 x %"class.std::__cxx11::basic_string"], ptr %4, i32 0, i32 0
  %6 = getelementptr inbounds %"class.std::__cxx11::basic_string", ptr %5, i64 14
  br label %7

7:                                                ; preds = %7, %1
  %8 = phi ptr [ %6, %1 ], [ %9, %7 ]
  %9 = getelementptr inbounds %"class.std::__cxx11::basic_string", ptr %8, i64 -1
  call void @_ZNSt7__cxx1112basic_stringIcSt11char_traitsIcEN7glslang14pool_allocatorIcEEED2Ev(ptr noundef nonnull align 8 dereferenceable(40) %9) #10
  %10 = icmp eq ptr %9, %5
  br i1 %10, label %11, label %7

11:                                               ; preds = %7
  %12 = getelementptr inbounds %"class.glslang::TBuiltInParseables", ptr %3, i32 0, i32 1
  call void @_ZNSt7__cxx1112basic_stringIcSt11char_traitsIcEN7glslang14pool_allocatorIcEEED2Ev(ptr noundef nonnull align 8 dereferenceable(40) %12) #10
  ret void
}